; Function Attrs: mustprogress uwtable
define dso_local void @_ZN5cmsys4Glob13AddExpressionERKNSt7__cxx1112basic_stringIcSt11char_traitsIcESaIcEEE(ptr noundef nonnull readonly align 8 captures(none) dereferenceable(82) %0, ptr noundef nonnull align 8 dereferenceable(32) %1) local_unnamed_addr #3 align 2 personality ptr @__gxx_personality_v0 {
  %3 = alloca %"class.std::__cxx11::basic_string", align 8
  %4 = load ptr, ptr %0, align 8
  call void @_ZN5cmsys4Glob14PatternToRegexERKNSt7__cxx1112basic_stringIcSt11char_traitsIcESaIcEEEbb(ptr dead_on_unwind nonnull writable sret(%"class.std::__cxx11::basic_string") align 8 %3, ptr noundef nonnull align 8 dereferenceable(32) %1, i1 noundef zeroext true, i1 zeroext poison)
  %5 = getelementptr inbounds nuw i8, ptr %4, i64 32
  %6 = load ptr, ptr %5, align 8
  %7 = getelementptr inbounds nuw i8, ptr %4, i64 40
  %8 = load ptr, ptr %7, align 8
  %.not.i = icmp eq ptr %6, %8
  br i1 %.not.i, label %17, label %9

9:                                                ; preds = %2
  %10 = getelementptr inbounds nuw i8, ptr %6, i64 528
  store ptr null, ptr %10, align 8
  %11 = getelementptr inbounds nuw i8, ptr %6, i64 544
  store ptr null, ptr %11, align 8
  %12 = getelementptr inbounds nuw i8, ptr %6, i64 552
  store i32 0, ptr %12, align 8
  call void @llvm.memset.p0.i64(ptr noundef nonnull align 8 dereferenceable(556) %6, i8 0, i64 522, i1 false)
  %13 = call noundef ptr @_ZNKSt7__cxx1112basic_stringIcSt11char_traitsIcESaIcEE5c_strEv(ptr noundef nonnull align 8 dereferenceable(32) %3) #17
  %14 = invoke noundef zeroext i1 @_ZN5cmsys17RegularExpression7compileEPKc(ptr noundef nonnull align 8 dereferenceable(556) %6, ptr noundef %13)
          to label %.noexc unwind label %19

.noexc:                                           ; preds = %9
  %15 = load ptr, ptr %5, align 8
  %16 = getelementptr inbounds nuw i8, ptr %15, i64 560
  store ptr %16, ptr %5, align 8
  br label %_ZNSt6vectorIN5cmsys17RegularExpressionESaIS1_EE12emplace_backIJNSt7__cxx1112basic_stringIcSt11char_traitsIcESaIcEEEEEERS1_DpOT_.exit

17:                                               ; preds = %2
  %18 = getelementptr inbounds nuw i8, ptr %4, i64 24
  invoke void @_ZNSt6vectorIN5cmsys17RegularExpressionESaIS1_EE17_M_realloc_insertIJNSt7__cxx1112basic_stringIcSt11char_traitsIcESaIcEEEEEEvN9__gnu_cxx17__normal_iteratorIPS1_S3_EEDpOT_(ptr noundef nonnull align 8 dereferenceable(24) %18, ptr %6, ptr noundef nonnull align 8 dereferenceable(32) %3)
          to label %_ZNSt6vectorIN5cmsys17RegularExpressionESaIS1_EE12emplace_backIJNSt7__cxx1112basic_stringIcSt11char_traitsIcESaIcEEEEEERS1_DpOT_.exit unwind label %19

_ZNSt6vectorIN5cmsys17RegularExpressionESaIS1_EE12emplace_backIJNSt7__cxx1112basic_stringIcSt11char_traitsIcESaIcEEEEEERS1_DpOT_.exit: ; preds = %17, %.noexc
  call void @_ZNSt7__cxx1112basic_stringIcSt11char_traitsIcESaIcEED1Ev(ptr noundef nonnull align 8 dereferenceable(32) %3) #17
  ret void

19:                                               ; preds = %17, %9
  %20 = landingpad { ptr, i32 }
          cleanup
  call void @_ZNSt7__cxx1112basic_stringIcSt11char_traitsIcESaIcEED1Ev(ptr noundef nonnull align 8 dereferenceable(32) %3) #17
  resume { ptr, i32 } %20
}